target datalayout = "e-m:e-p270:32:32-p271:32:32-p272:64:64-i64:64-i128:128-f80:128-n8:16:32:64-S128"
target triple = "x86_64-unknown-linux-gnu"

%struct.BdrvNextIterator = type { i32, ptr, ptr }
%struct.strList = type { ptr, ptr }

@.str.7 = private unnamed_addr constant [25 x i8] c"../qemu/block/snapshot.c\00", align 1
@__func__.bdrv_all_get_snapshot_devices = private unnamed_addr constant [30 x i8] c"bdrv_all_get_snapshot_devices\00", align 1
@.str.31 = private unnamed_addr constant [45 x i8] c"At least one device is required for snapshot\00", align 1
@.str.32 = private unnamed_addr constant [26 x i8] c"No block device node '%s'\00", align 1

; Function Attrs: nounwind sspstrong uwtable
define internal void @glib_autoptr_clear_GList(ptr noundef %_ptr) #0 {
entry:
  %_ptr.addr = alloca ptr, align 8
  store ptr %_ptr, ptr %_ptr.addr, align 8
  %0 = load ptr, ptr %_ptr.addr, align 8
  %tobool = icmp ne ptr %0, null
  br i1 %tobool, label %if.then, label %if.end

if.then:                                          ; preds = %entry
  %1 = load ptr, ptr %_ptr.addr, align 8
  call void @g_list_free(ptr noundef %1)
  br label %if.end

if.end:                                           ; preds = %if.then, %entry
  ret void
}

; Function Attrs: nounwind sspstrong uwtable
define internal void @glib_autoptr_cleanup_GList(ptr noundef %_ptr) #0 {
entry:
  %_ptr.addr = alloca ptr, align 8
  store ptr %_ptr, ptr %_ptr.addr, align 8
  %0 = load ptr, ptr %_ptr.addr, align 8
  %1 = load ptr, ptr %0, align 8
  call void @glib_autoptr_clear_GList(ptr noundef %1)
  ret void
}

; Function Attrs: nounwind sspstrong uwtable
define internal ptr @g_steal_pointer(ptr noundef %pp) #0 {
entry:
  %pp.addr = alloca ptr, align 8
  %ptr = alloca ptr, align 8
  %ref = alloca ptr, align 8
  store ptr %pp, ptr %pp.addr, align 8
  %0 = load ptr, ptr %pp.addr, align 8
  store ptr %0, ptr %ptr, align 8
  %1 = load ptr, ptr %ptr, align 8
  %2 = load ptr, ptr %1, align 8
  store ptr %2, ptr %ref, align 8
  %3 = load ptr, ptr %ptr, align 8
  store ptr null, ptr %3, align 8
  %4 = load ptr, ptr %ref, align 8
  ret ptr %4
}

; Function Attrs: nounwind sspstrong uwtable
define internal i32 @bdrv_all_get_snapshot_devices(i1 noundef zeroext %has_devices, ptr noundef %devices, ptr noundef %all_bdrvs, ptr noundef %errp) #0 {
entry:
  %retval = alloca i32, align 4
  %has_devices.addr = alloca i8, align 1
  %devices.addr = alloca ptr, align 8
  %all_bdrvs.addr = alloca ptr, align 8
  %errp.addr = alloca ptr, align 8
  %bdrvs = alloca ptr, align 8
  %cleanup.dest.slot = alloca i32, align 4
  %bs = alloca ptr, align 8
  %bs9 = alloca ptr, align 8
  %it = alloca %struct.BdrvNextIterator, align 8
  %frombool = zext i1 %has_devices to i8
  store i8 %frombool, ptr %has_devices.addr, align 1
  store ptr %devices, ptr %devices.addr, align 8
  store ptr %all_bdrvs, ptr %all_bdrvs.addr, align 8
  store ptr %errp, ptr %errp.addr, align 8
  store ptr null, ptr %bdrvs, align 8
  %0 = load i8, ptr %has_devices.addr, align 1
  %tobool = trunc i8 %0 to i1
  br i1 %tobool, label %if.then, label %if.else

if.then:                                          ; preds = %entry
  %1 = load ptr, ptr %devices.addr, align 8
  %tobool1 = icmp ne ptr %1, null
  br i1 %tobool1, label %if.end, label %if.then2

if.then2:                                         ; preds = %if.then
  %2 = load ptr, ptr %errp.addr, align 8
  call void (ptr, ptr, i32, ptr, ptr, ...) @error_setg_internal(ptr noundef %2, ptr noundef @.str.7, i32 noundef 488, ptr noundef @__func__.bdrv_all_get_snapshot_devices, ptr noundef @.str.31)
  store i32 -1, ptr %retval, align 4
  store i32 1, ptr %cleanup.dest.slot, align 4
  br label %cleanup

if.end:                                           ; preds = %if.then
  br label %while.cond

while.cond:                                       ; preds = %if.end7, %if.end
  %3 = load ptr, ptr %devices.addr, align 8
  %tobool3 = icmp ne ptr %3, null
  br i1 %tobool3, label %while.body, label %while.end

while.body:                                       ; preds = %while.cond
  %4 = load ptr, ptr %devices.addr, align 8
  %value = getelementptr inbounds %struct.strList, ptr %4, i32 0, i32 1
  %5 = load ptr, ptr %value, align 8
  %call = call ptr @bdrv_find_node(ptr noundef %5)
  store ptr %call, ptr %bs, align 8
  %6 = load ptr, ptr %bs, align 8
  %tobool4 = icmp ne ptr %6, null
  br i1 %tobool4, label %if.end7, label %if.then5

if.then5:                                         ; preds = %while.body
  %7 = load ptr, ptr %errp.addr, align 8
  %8 = load ptr, ptr %devices.addr, align 8
  %value6 = getelementptr inbounds %struct.strList, ptr %8, i32 0, i32 1
  %9 = load ptr, ptr %value6, align 8
  call void (ptr, ptr, i32, ptr, ptr, ...) @error_setg_internal(ptr noundef %7, ptr noundef @.str.7, i32 noundef 495, ptr noundef @__func__.bdrv_all_get_snapshot_devices, ptr noundef @.str.32, ptr noundef %9)
  store i32 -1, ptr %retval, align 4
  store i32 1, ptr %cleanup.dest.slot, align 4
  br label %cleanup

if.end7:                                          ; preds = %while.body
  %10 = load ptr, ptr %bdrvs, align 8
  %11 = load ptr, ptr %bs, align 8
  %call8 = call ptr @g_list_append(ptr noundef %10, ptr noundef %11)
  store ptr %call8, ptr %bdrvs, align 8
  %12 = load ptr, ptr %devices.addr, align 8
  %next = getelementptr inbounds %struct.strList, ptr %12, i32 0, i32 0
  %13 = load ptr, ptr %next, align 8
  store ptr %13, ptr %devices.addr, align 8
  br label %while.cond, !llvm.loop !12

while.end:                                        ; preds = %while.cond
  br label %if.end14

if.else:                                          ; preds = %entry
  %call10 = call ptr @bdrv_first(ptr noundef %it)
  store ptr %call10, ptr %bs9, align 8
  br label %for.cond

for.cond:                                         ; preds = %for.inc, %if.else
  %14 = load ptr, ptr %bs9, align 8
  %tobool11 = icmp ne ptr %14, null
  br i1 %tobool11, label %for.body, label %for.end

for.body:                                         ; preds = %for.cond
  %15 = load ptr, ptr %bdrvs, align 8
  %16 = load ptr, ptr %bs9, align 8
  %call12 = call ptr @g_list_append(ptr noundef %15, ptr noundef %16)
  store ptr %call12, ptr %bdrvs, align 8
  br label %for.inc

for.inc:                                          ; preds = %for.body
  %call13 = call ptr @bdrv_next(ptr noundef %it)
  store ptr %call13, ptr %bs9, align 8
  br label %for.cond, !llvm.loop !13

for.end:                                          ; preds = %for.cond
  br label %if.end14

if.end14:                                         ; preds = %for.end, %while.end
  %call15 = call ptr @g_steal_pointer(ptr noundef %bdrvs)
  %17 = load ptr, ptr %all_bdrvs.addr, align 8
  store ptr %call15, ptr %17, align 8
  store i32 0, ptr %retval, align 4
  store i32 1, ptr %cleanup.dest.slot, align 4
  br label %cleanup

cleanup:                                          ; preds = %if.end14, %if.then5, %if.then2
  call void @glib_autoptr_cleanup_GList(ptr noundef %bdrvs)
  %18 = load i32, ptr %retval, align 4
  ret i32 %18
}